target datalayout = "e-m:e-p270:32:32-p271:32:32-p272:64:64-i64:64-i128:128-f80:128-n8:16:32:64-S128"
target triple = "x86_64-pc-linux-gnu"

%struct.nghttp2_frame_hd = type { i64, i32, i8, i8, i8 }
%struct.nghttp2_goaway = type { %struct.nghttp2_frame_hd, i32, i32, ptr, i64, i8 }

; Function Attrs: nounwind uwtable
define hidden void @nghttp2_frame_hd_init(ptr noundef %0, i64 noundef %1, i8 noundef zeroext %2, i8 noundef zeroext %3, i32 noundef %4) #0 {
  %6 = alloca ptr, align 8
  %7 = alloca i64, align 8
  %8 = alloca i8, align 1
  %9 = alloca i8, align 1
  %10 = alloca i32, align 4
  store ptr %0, ptr %6, align 8, !tbaa !8
  store i64 %1, ptr %7, align 8, !tbaa !18
  store i8 %2, ptr %8, align 1, !tbaa !14
  store i8 %3, ptr %9, align 1, !tbaa !14
  store i32 %4, ptr %10, align 4, !tbaa !19
  %11 = load i64, ptr %7, align 8, !tbaa !18
  %12 = load ptr, ptr %6, align 8, !tbaa !8
  %13 = getelementptr inbounds nuw %struct.nghttp2_frame_hd, ptr %12, i32 0, i32 0
  store i64 %11, ptr %13, align 8, !tbaa !9
  %14 = load i8, ptr %8, align 1, !tbaa !14
  %15 = load ptr, ptr %6, align 8, !tbaa !8
  %16 = getelementptr inbounds nuw %struct.nghttp2_frame_hd, ptr %15, i32 0, i32 2
  store i8 %14, ptr %16, align 4, !tbaa !13
  %17 = load i8, ptr %9, align 1, !tbaa !14
  %18 = load ptr, ptr %6, align 8, !tbaa !8
  %19 = getelementptr inbounds nuw %struct.nghttp2_frame_hd, ptr %18, i32 0, i32 3
  store i8 %17, ptr %19, align 1, !tbaa !15
  %20 = load i32, ptr %10, align 4, !tbaa !19
  %21 = load ptr, ptr %6, align 8, !tbaa !8
  %22 = getelementptr inbounds nuw %struct.nghttp2_frame_hd, ptr %21, i32 0, i32 1
  store i32 %20, ptr %22, align 8, !tbaa !16
  %23 = load ptr, ptr %6, align 8, !tbaa !8
  %24 = getelementptr inbounds nuw %struct.nghttp2_frame_hd, ptr %23, i32 0, i32 4
  store i8 0, ptr %24, align 2, !tbaa !17
  ret void
}

; Function Attrs: nounwind uwtable
define hidden void @nghttp2_frame_goaway_init(ptr noundef %0, i32 noundef %1, i32 noundef %2, ptr noundef %3, i64 noundef %4) #0 {
  %6 = alloca ptr, align 8
  %7 = alloca i32, align 4
  %8 = alloca i32, align 4
  %9 = alloca ptr, align 8
  %10 = alloca i64, align 8
  store ptr %0, ptr %6, align 8, !tbaa !8
  store i32 %1, ptr %7, align 4, !tbaa !19
  store i32 %2, ptr %8, align 4, !tbaa !19
  store ptr %3, ptr %9, align 8, !tbaa !3
  store i64 %4, ptr %10, align 8, !tbaa !18
  %11 = load ptr, ptr %6, align 8, !tbaa !8
  %12 = getelementptr inbounds nuw %struct.nghttp2_goaway, ptr %11, i32 0, i32 0
  %13 = load i64, ptr %10, align 8, !tbaa !18
  %14 = add i64 8, %13
  call void @nghttp2_frame_hd_init(ptr noundef %12, i64 noundef %14, i8 noundef zeroext 7, i8 noundef zeroext 0, i32 noundef 0)
  %15 = load i32, ptr %7, align 4, !tbaa !19
  %16 = load ptr, ptr %6, align 8, !tbaa !8
  %17 = getelementptr inbounds nuw %struct.nghttp2_goaway, ptr %16, i32 0, i32 1
  store i32 %15, ptr %17, align 8, !tbaa !38
  %18 = load i32, ptr %8, align 4, !tbaa !19
  %19 = load ptr, ptr %6, align 8, !tbaa !8
  %20 = getelementptr inbounds nuw %struct.nghttp2_goaway, ptr %19, i32 0, i32 2
  store i32 %18, ptr %20, align 4, !tbaa !40
  %21 = load ptr, ptr %9, align 8, !tbaa !3
  %22 = load ptr, ptr %6, align 8, !tbaa !8
  %23 = getelementptr inbounds nuw %struct.nghttp2_goaway, ptr %22, i32 0, i32 3
  store ptr %21, ptr %23, align 8, !tbaa !41
  %24 = load i64, ptr %10, align 8, !tbaa !18
  %25 = load ptr, ptr %6, align 8, !tbaa !8
  %26 = getelementptr inbounds nuw %struct.nghttp2_goaway, ptr %25, i32 0, i32 4
  store i64 %24, ptr %26, align 8, !tbaa !42
  %27 = load ptr, ptr %6, align 8, !tbaa !8
  %28 = getelementptr inbounds nuw %struct.nghttp2_goaway, ptr %27, i32 0, i32 5
  store i8 0, ptr %28, align 8, !tbaa !43
  ret void
}