; Function Attrs: mustprogress nofree norecurse nosync nounwind willreturn memory(argmem: write) uwtable
define hidden void @nghttp2_frame_goaway_init(ptr noundef writeonly captures(none) initializes((0, 15), (16, 41)) %0, i32 noundef %1, i32 noundef %2, ptr noundef %3, i64 noundef %4) local_unnamed_addr #2 {
  %6 = add i64 %4, 8
  store i64 %6, ptr %0, align 8, !tbaa !3
  %7 = getelementptr inbounds nuw i8, ptr %0, i64 12
  store i8 7, ptr %7, align 4, !tbaa !9
  %8 = getelementptr inbounds nuw i8, ptr %0, i64 13
  store i8 0, ptr %8, align 1, !tbaa !11
  %9 = getelementptr inbounds nuw i8, ptr %0, i64 8
  store i32 0, ptr %9, align 8, !tbaa !12
  %10 = getelementptr inbounds nuw i8, ptr %0, i64 14
  store i8 0, ptr %10, align 2, !tbaa !13
  %11 = getelementptr inbounds nuw i8, ptr %0, i64 16
  store i32 %1, ptr %11, align 8, !tbaa !34
  %12 = getelementptr inbounds nuw i8, ptr %0, i64 20
  store i32 %2, ptr %12, align 4, !tbaa !37
  %13 = getelementptr inbounds nuw i8, ptr %0, i64 24
  store ptr %3, ptr %13, align 8, !tbaa !38
  %14 = getelementptr inbounds nuw i8, ptr %0, i64 32
  store i64 %4, ptr %14, align 8, !tbaa !39
  %15 = getelementptr inbounds nuw i8, ptr %0, i64 40
  store i8 0, ptr %15, align 8, !tbaa !40
  ret void
}